; Function Attrs: mustprogress uwtable
define noundef zeroext i1 @_ZNK10open_spiel10algorithms9AFCEState11HasDefectedEi(ptr noundef nonnull readonly align 8 captures(none) dereferenceable(200) %0, i32 noundef %1) local_unnamed_addr #3 align 2 personality ptr @__gxx_personality_v0 {
  %3 = alloca i32, align 4
  %4 = alloca i32, align 4
  %5 = alloca %"class.std::__cxx11::basic_string", align 8
  %6 = alloca i32, align 4
  %7 = alloca i32, align 4
  %8 = alloca i32, align 4
  %9 = alloca %"class.std::__cxx11::basic_string", align 8
  %10 = alloca i32, align 4
  store i32 %1, ptr %3, align 4
  store i32 0, ptr %4, align 4
  %11 = icmp sgt i32 %1, -1
  br i1 %11, label %16, label %12

12:                                               ; preds = %2
  store i32 129, ptr %6, align 4
  call void @_ZN10open_spiel8internal11SpielStrCatIJRA138_KcRA2_S2_iS6_RA12_S2_RA8_S2_RA4_S2_RiRA7_S2_SD_EEENSt7__cxx1112basic_stringIcSt11char_traitsIcESaIcEEEDpOT_(ptr dead_on_unwind nonnull writable sret(%"class.std::__cxx11::basic_string") align 8 %5, ptr noundef nonnull align 1 dereferenceable(138) @.str, ptr noundef nonnull align 1 dereferenceable(2) @.str.1, ptr noundef nonnull align 4 dereferenceable(4) %6, ptr noundef nonnull align 1 dereferenceable(2) @.str.9, ptr noundef nonnull align 1 dereferenceable(12) @.str.23, ptr noundef nonnull align 1 dereferenceable(8) @.str.24, ptr noundef nonnull align 1 dereferenceable(4) @.str.12, ptr noundef nonnull align 4 dereferenceable(4) %3, ptr noundef nonnull align 1 dereferenceable(7) @.str.25, ptr noundef nonnull align 4 dereferenceable(4) %4)
  invoke void @_ZN10open_spiel15SpielFatalErrorERKNSt7__cxx1112basic_stringIcSt11char_traitsIcESaIcEEE(ptr noundef nonnull align 8 dereferenceable(32) %5) #22
          to label %13 unwind label %14

13:                                               ; preds = %12
  unreachable

14:                                               ; preds = %12
  %15 = landingpad { ptr, i32 }
          cleanup
  br label %35

16:                                               ; preds = %2
  store i32 %1, ptr %7, align 4
  %17 = getelementptr inbounds nuw i8, ptr %0, i64 8
  %18 = load ptr, ptr %17, align 8
  %19 = load ptr, ptr %18, align 8
  %20 = getelementptr inbounds nuw i8, ptr %19, i64 56
  %21 = load ptr, ptr %20, align 8
  %22 = tail call noundef i32 %21(ptr noundef nonnull align 8 dereferenceable(280) %18)
  store i32 %22, ptr %8, align 4
  %23 = icmp slt i32 %1, %22
  br i1 %23, label %28, label %24

24:                                               ; preds = %16
  store i32 130, ptr %10, align 4
  call void @_ZN10open_spiel8internal11SpielStrCatIJRA138_KcRA2_S2_iS6_RA29_S2_RA8_S2_RA4_S2_RiRA25_S2_SD_EEENSt7__cxx1112basic_stringIcSt11char_traitsIcESaIcEEEDpOT_(ptr dead_on_unwind nonnull writable sret(%"class.std::__cxx11::basic_string") align 8 %9, ptr noundef nonnull align 1 dereferenceable(138) @.str, ptr noundef nonnull align 1 dereferenceable(2) @.str.1, ptr noundef nonnull align 4 dereferenceable(4) %10, ptr noundef nonnull align 1 dereferenceable(2) @.str.9, ptr noundef nonnull align 1 dereferenceable(29) @.str.26, ptr noundef nonnull align 1 dereferenceable(8) @.str.24, ptr noundef nonnull align 1 dereferenceable(4) @.str.12, ptr noundef nonnull align 4 dereferenceable(4) %7, ptr noundef nonnull align 1 dereferenceable(25) @.str.27, ptr noundef nonnull align 4 dereferenceable(4) %8)
  invoke void @_ZN10open_spiel15SpielFatalErrorERKNSt7__cxx1112basic_stringIcSt11char_traitsIcESaIcEEE(ptr noundef nonnull align 8 dereferenceable(32) %9) #22
          to label %25 unwind label %26

25:                                               ; preds = %24
  unreachable

26:                                               ; preds = %24
  %27 = landingpad { ptr, i32 }
          cleanup
  br label %35

28:                                               ; preds = %16
  %29 = getelementptr inbounds nuw i8, ptr %0, i64 128
  %30 = zext nneg i32 %1 to i64
  %31 = load ptr, ptr %29, align 8
  %32 = getelementptr inbounds nuw i32, ptr %31, i64 %30
  %33 = load i32, ptr %32, align 4
  %34 = icmp eq i32 %33, 1
  ret i1 %34

35:                                               ; preds = %26, %14
  %.sink = phi ptr [ %9, %26 ], [ %5, %14 ]
  %.pn = phi { ptr, i32 } [ %27, %26 ], [ %15, %14 ]
  call void @_ZNSt7__cxx1112basic_stringIcSt11char_traitsIcESaIcEED1Ev(ptr noundef nonnull align 8 dereferenceable(32) %.sink) #21
  resume { ptr, i32 } %.pn
}